target datalayout = "e-m:e-p270:32:32-p271:32:32-p272:64:64-i64:64-i128:128-f80:128-n8:16:32:64-S128"
target triple = "x86_64-pc-linux-gnu"

%class.PreservedMark = type { ptr, %class.markWord }
%class.markWord = type { i64 }
%class.oopDesc = type { %class.markWord, %"union.oopDesc::_metadata" }
%"union.oopDesc::_metadata" = type { ptr }
%"struct.Atomic::LoadImpl" = type { i8 }
%"struct.Atomic::PlatformLoad" = type { i8 }

; Function Attrs: mustprogress nounwind uwtable
define linkonce_odr hidden void @_ZN8markWordC2Em(ptr noundef nonnull align 8 dereferenceable(8) %0, i64 noundef %1) unnamed_addr #1 comdat align 2 {
  %3 = alloca ptr, align 8
  %4 = alloca i64, align 8
  store ptr %0, ptr %3, align 8
  store i64 %1, ptr %4, align 8
  %5 = load ptr, ptr %3, align 8
  %6 = getelementptr inbounds %class.markWord, ptr %5, i32 0, i32 0
  %7 = load i64, ptr %4, align 8
  store i64 %7, ptr %6, align 8
  ret void
}

; Function Attrs: mustprogress nounwind uwtable
define linkonce_odr hidden i64 @_ZN20PrimitiveConversions9TranslateI8markWordvE7recoverEm(i64 noundef %0) #1 comdat align 2 {
  %2 = alloca %class.markWord, align 8
  %3 = alloca i64, align 8
  store i64 %0, ptr %3, align 8
  %4 = load i64, ptr %3, align 8
  call void @_ZN8markWordC2Em(ptr noundef nonnull align 8 dereferenceable(8) %2, i64 noundef %4)
  %5 = getelementptr inbounds %class.markWord, ptr %2, i32 0, i32 0
  %6 = load i64, ptr %5, align 8
  ret i64 %6
}

; Function Attrs: mustprogress nounwind uwtable
define linkonce_odr hidden noundef i64 @_ZNK6Atomic12PlatformLoadILm8EEclImEET_PVKS3_(ptr noundef nonnull align 1 dereferenceable(1) %0, ptr noundef %1) #1 comdat align 2 {
  %3 = alloca ptr, align 8
  %4 = alloca ptr, align 8
  store ptr %0, ptr %3, align 8
  store ptr %1, ptr %4, align 8
  %5 = load ptr, ptr %4, align 8
  %6 = load volatile i64, ptr %5, align 8
  ret i64 %6
}

; Function Attrs: mustprogress nounwind uwtable
define linkonce_odr hidden i64 @_ZNK8markWord15clear_lock_bitsEv(ptr noundef nonnull align 8 dereferenceable(8) %0) #1 comdat align 2 {
  %2 = alloca %class.markWord, align 8
  %3 = alloca ptr, align 8
  store ptr %0, ptr %3, align 8
  %4 = load ptr, ptr %3, align 8
  %5 = call noundef i64 @_ZNK8markWord5valueEv(ptr noundef nonnull align 8 dereferenceable(8) %4)
  %6 = and i64 %5, -4
  call void @_ZN8markWordC2Em(ptr noundef nonnull align 8 dereferenceable(8) %2, i64 noundef %6)
  %7 = getelementptr inbounds %class.markWord, ptr %2, i32 0, i32 0
  %8 = load i64, ptr %7, align 8
  ret i64 %8
}

; Function Attrs: mustprogress nounwind uwtable
define linkonce_odr hidden i64 @_ZNK6Atomic8LoadImplI8markWordNS_12PlatformLoadILm8EEEvEclEPVKS1_(ptr noundef nonnull align 1 dereferenceable(1) %0, ptr noundef %1) #1 comdat align 2 {
  %3 = alloca %class.markWord, align 8
  %4 = alloca ptr, align 8
  %5 = alloca ptr, align 8
  %6 = alloca i64, align 8
  %7 = alloca %"struct.Atomic::PlatformLoad", align 1
  store ptr %0, ptr %4, align 8
  store ptr %1, ptr %5, align 8
  %8 = load ptr, ptr %5, align 8
  %9 = call noundef i64 @_ZNK6Atomic12PlatformLoadILm8EEclImEET_PVKS3_(ptr noundef nonnull align 1 dereferenceable(1) %7, ptr noundef %8)
  store i64 %9, ptr %6, align 8
  %10 = load i64, ptr %6, align 8
  %11 = call i64 @_ZN20PrimitiveConversions9TranslateI8markWordvE7recoverEm(i64 noundef %10)
  %12 = getelementptr inbounds %class.markWord, ptr %3, i32 0, i32 0
  store i64 %11, ptr %12, align 8
  %13 = getelementptr inbounds %class.markWord, ptr %3, i32 0, i32 0
  %14 = load i64, ptr %13, align 8
  ret i64 %14
}

; Function Attrs: mustprogress nounwind uwtable
define linkonce_odr hidden noundef ptr @_Z11cast_to_oopIPvEP7oopDescT_(ptr noundef %0) #1 comdat {
  %2 = alloca ptr, align 8
  store ptr %0, ptr %2, align 8
  %3 = load ptr, ptr %2, align 8
  ret ptr %3
}

; Function Attrs: mustprogress nounwind uwtable
define linkonce_odr hidden noundef ptr @_ZNK8markWord14decode_pointerEv(ptr noundef nonnull align 8 dereferenceable(8) %0) #1 comdat align 2 {
  %2 = alloca ptr, align 8
  %3 = alloca %class.markWord, align 8
  store ptr %0, ptr %2, align 8
  %4 = load ptr, ptr %2, align 8
  %5 = call i64 @_ZNK8markWord15clear_lock_bitsEv(ptr noundef nonnull align 8 dereferenceable(8) %4)
  %6 = getelementptr inbounds %class.markWord, ptr %3, i32 0, i32 0
  store i64 %5, ptr %6, align 8
  %7 = call noundef i64 @_ZNK8markWord5valueEv(ptr noundef nonnull align 8 dereferenceable(8) %3)
  %8 = inttoptr i64 %7 to ptr
  ret ptr %8
}

; Function Attrs: mustprogress nounwind uwtable
define linkonce_odr hidden noundef i64 @_Z9mask_bitsll(i64 noundef %0, i64 noundef %1) #1 comdat {
  %3 = alloca i64, align 8
  %4 = alloca i64, align 8
  store i64 %0, ptr %3, align 8
  store i64 %1, ptr %4, align 8
  %5 = load i64, ptr %3, align 8
  %6 = load i64, ptr %4, align 8
  %7 = and i64 %5, %6
  ret i64 %7
}

; Function Attrs: mustprogress nounwind uwtable
define linkonce_odr hidden noundef i64 @_ZNK8markWord5valueEv(ptr noundef nonnull align 8 dereferenceable(8) %0) #1 comdat align 2 {
  %2 = alloca ptr, align 8
  store ptr %0, ptr %2, align 8
  %3 = load ptr, ptr %2, align 8
  %4 = getelementptr inbounds %class.markWord, ptr %3, i32 0, i32 0
  %5 = load i64, ptr %4, align 8
  ret i64 %5
}

; Function Attrs: mustprogress nounwind uwtable
define linkonce_odr hidden i64 @_ZN6Atomic4loadI8markWordEET_PVKS2_(ptr noundef %0) #1 comdat align 2 {
  %2 = alloca %class.markWord, align 8
  %3 = alloca ptr, align 8
  %4 = alloca %"struct.Atomic::LoadImpl", align 1
  store ptr %0, ptr %3, align 8
  %5 = load ptr, ptr %3, align 8
  %6 = call i64 @_ZNK6Atomic8LoadImplI8markWordNS_12PlatformLoadILm8EEEvEclEPVKS1_(ptr noundef nonnull align 1 dereferenceable(1) %4, ptr noundef %5)
  %7 = getelementptr inbounds %class.markWord, ptr %2, i32 0, i32 0
  store i64 %6, ptr %7, align 8
  %8 = getelementptr inbounds %class.markWord, ptr %2, i32 0, i32 0
  %9 = load i64, ptr %8, align 8
  ret i64 %9
}

; Function Attrs: mustprogress nounwind uwtable
define linkonce_odr hidden noundef ptr @_ZNK8markWord9forwardeeEv(ptr noundef nonnull align 8 dereferenceable(8) %0) #1 comdat align 2 {
  %2 = alloca ptr, align 8
  store ptr %0, ptr %2, align 8
  %3 = load ptr, ptr %2, align 8
  %4 = call noundef ptr @_ZNK8markWord14decode_pointerEv(ptr noundef nonnull align 8 dereferenceable(8) %3)
  %5 = call noundef ptr @_Z11cast_to_oopIPvEP7oopDescT_(ptr noundef %4)
  ret ptr %5
}

; Function Attrs: mustprogress nounwind uwtable
define linkonce_odr hidden noundef zeroext i1 @_ZNK8markWord12is_forwardedEv(ptr noundef nonnull align 8 dereferenceable(8) %0) #1 comdat align 2 {
  %2 = alloca ptr, align 8
  store ptr %0, ptr %2, align 8
  %3 = load ptr, ptr %2, align 8
  %4 = call noundef i64 @_ZNK8markWord5valueEv(ptr noundef nonnull align 8 dereferenceable(8) %3)
  %5 = call noundef i64 @_Z9mask_bitsll(i64 noundef %4, i64 noundef 3)
  %6 = icmp eq i64 %5, 3
  ret i1 %6
}

; Function Attrs: mustprogress nounwind uwtable
define linkonce_odr hidden i64 @_ZNK7oopDesc4markEv(ptr noundef nonnull align 8 dereferenceable(16) %0) #1 comdat align 2 {
  %2 = alloca %class.markWord, align 8
  %3 = alloca ptr, align 8
  store ptr %0, ptr %3, align 8
  %4 = load ptr, ptr %3, align 8
  %5 = getelementptr inbounds %class.oopDesc, ptr %4, i32 0, i32 0
  %6 = call i64 @_ZN6Atomic4loadI8markWordEET_PVKS2_(ptr noundef %5)
  %7 = getelementptr inbounds %class.markWord, ptr %2, i32 0, i32 0
  store i64 %6, ptr %7, align 8
  %8 = getelementptr inbounds %class.markWord, ptr %2, i32 0, i32 0
  %9 = load i64, ptr %8, align 8
  ret i64 %9
}

; Function Attrs: mustprogress nounwind uwtable
define linkonce_odr hidden void @_ZN13PreservedMark7set_oopEP7oopDesc(ptr noundef nonnull align 8 dereferenceable(16) %0, ptr noundef %1) #1 comdat align 2 {
  %3 = alloca ptr, align 8
  %4 = alloca ptr, align 8
  store ptr %0, ptr %3, align 8
  store ptr %1, ptr %4, align 8
  %5 = load ptr, ptr %3, align 8
  %6 = load ptr, ptr %4, align 8
  %7 = getelementptr inbounds %class.PreservedMark, ptr %5, i32 0, i32 0
  store ptr %6, ptr %7, align 8
  ret void
}

; Function Attrs: mustprogress nounwind uwtable
define linkonce_odr hidden noundef ptr @_ZNK7oopDesc9forwardeeEv(ptr noundef nonnull align 8 dereferenceable(16) %0) #1 comdat align 2 {
  %2 = alloca ptr, align 8
  %3 = alloca %class.markWord, align 8
  store ptr %0, ptr %2, align 8
  %4 = load ptr, ptr %2, align 8
  %5 = call i64 @_ZNK7oopDesc4markEv(ptr noundef nonnull align 8 dereferenceable(16) %4)
  %6 = getelementptr inbounds %class.markWord, ptr %3, i32 0, i32 0
  store i64 %5, ptr %6, align 8
  %7 = call noundef ptr @_ZNK8markWord9forwardeeEv(ptr noundef nonnull align 8 dereferenceable(8) %3)
  ret ptr %7
}

; Function Attrs: mustprogress nounwind uwtable
define linkonce_odr hidden noundef zeroext i1 @_ZNK7oopDesc12is_forwardedEv(ptr noundef nonnull align 8 dereferenceable(16) %0) #1 comdat align 2 {
  %2 = alloca ptr, align 8
  %3 = alloca %class.markWord, align 8
  store ptr %0, ptr %2, align 8
  %4 = load ptr, ptr %2, align 8
  %5 = call i64 @_ZNK7oopDesc4markEv(ptr noundef nonnull align 8 dereferenceable(16) %4)
  %6 = getelementptr inbounds %class.markWord, ptr %3, i32 0, i32 0
  store i64 %5, ptr %6, align 8
  %7 = call noundef zeroext i1 @_ZNK8markWord12is_forwardedEv(ptr noundef nonnull align 8 dereferenceable(8) %3)
  ret i1 %7
}

; Function Attrs: mustprogress nounwind uwtable
define linkonce_odr hidden noundef ptr @_ZN13PreservedMark7get_oopEv(ptr noundef nonnull align 8 dereferenceable(16) %0) #1 comdat align 2 {
  %2 = alloca ptr, align 8
  store ptr %0, ptr %2, align 8
  %3 = load ptr, ptr %2, align 8
  %4 = getelementptr inbounds %class.PreservedMark, ptr %3, i32 0, i32 0
  %5 = load ptr, ptr %4, align 8
  ret ptr %5
}

; Function Attrs: mustprogress nounwind uwtable
define hidden void @_ZN14PreservedMarks21adjust_preserved_markEP13PreservedMark(ptr noundef %0) #1 align 2 {
  %2 = alloca ptr, align 8
  %3 = alloca ptr, align 8
  store ptr %0, ptr %2, align 8
  %4 = load ptr, ptr %2, align 8
  %5 = call noundef ptr @_ZN13PreservedMark7get_oopEv(ptr noundef nonnull align 8 dereferenceable(16) %4)
  store ptr %5, ptr %3, align 8
  %6 = load ptr, ptr %3, align 8
  %7 = call noundef zeroext i1 @_ZNK7oopDesc12is_forwardedEv(ptr noundef nonnull align 8 dereferenceable(16) %6)
  br i1 %7, label %8, label %12

8:                                                ; preds = %1
  %9 = load ptr, ptr %2, align 8
  %10 = load ptr, ptr %3, align 8
  %11 = call noundef ptr @_ZNK7oopDesc9forwardeeEv(ptr noundef nonnull align 8 dereferenceable(16) %10)
  call void @_ZN13PreservedMark7set_oopEP7oopDesc(ptr noundef nonnull align 8 dereferenceable(16) %9, ptr noundef %11)
  br label %12

12:                                               ; preds = %8, %1
  ret void
}