; Function Attrs: mustprogress nofree norecurse nounwind willreturn uwtable
define hidden void @_ZN14PreservedMarks21adjust_preserved_markEP13PreservedMark(ptr nocapture noundef %0) local_unnamed_addr #1 align 2 {
  %2 = load ptr, ptr %0, align 8
  %3 = load volatile i64, ptr %2, align 8
  %4 = and i64 %3, 3
  %5 = icmp eq i64 %4, 3
  br i1 %5, label %6, label %10

6:                                                ; preds = %1
  %7 = load volatile i64, ptr %2, align 8
  %8 = and i64 %7, -4
  %9 = inttoptr i64 %8 to ptr
  store ptr %9, ptr %0, align 8
  br label %10

10:                                               ; preds = %6, %1
  ret void
}